target datalayout = "e-m:e-p270:32:32-p271:32:32-p272:64:64-i64:64-i128:128-f80:128-n8:16:32:64-S128"
target triple = "x86_64-pc-linux-gnu"

%struct.Lexer = type { %struct.StringPiece, %struct.StringPiece, ptr, ptr }
%struct.StringPiece = type { ptr, i64 }

; Function Attrs: mustprogress nounwind uwtable
define dso_local void @_ZN5Lexer5StartE11StringPieceS0_(ptr noundef nonnull align 8 dereferenceable(48) %0, ptr %1, i64 %2, ptr %3, i64 %4) #3 align 2 {
  %6 = alloca %struct.StringPiece, align 8
  %7 = alloca %struct.StringPiece, align 8
  %8 = alloca ptr, align 8
  %9 = getelementptr inbounds nuw { ptr, i64 }, ptr %6, i32 0, i32 0
  store ptr %1, ptr %9, align 8
  %10 = getelementptr inbounds nuw { ptr, i64 }, ptr %6, i32 0, i32 1
  store i64 %2, ptr %10, align 8
  %11 = getelementptr inbounds nuw { ptr, i64 }, ptr %7, i32 0, i32 0
  store ptr %3, ptr %11, align 8
  %12 = getelementptr inbounds nuw { ptr, i64 }, ptr %7, i32 0, i32 1
  store i64 %4, ptr %12, align 8
  store ptr %0, ptr %8, align 8, !tbaa !4
  %13 = load ptr, ptr %8, align 8
  %14 = getelementptr inbounds nuw %struct.Lexer, ptr %13, i32 0, i32 0
  call void @llvm.memcpy.p0.p0.i64(ptr align 8 %14, ptr align 8 %6, i64 16, i1 false), !tbaa.struct !35
  %15 = getelementptr inbounds nuw %struct.Lexer, ptr %13, i32 0, i32 1
  call void @llvm.memcpy.p0.p0.i64(ptr align 8 %15, ptr align 8 %7, i64 16, i1 false), !tbaa.struct !35
  %16 = getelementptr inbounds nuw %struct.Lexer, ptr %13, i32 0, i32 1
  %17 = getelementptr inbounds nuw %struct.StringPiece, ptr %16, i32 0, i32 0
  %18 = load ptr, ptr %17, align 8, !tbaa !13
  %19 = getelementptr inbounds nuw %struct.Lexer, ptr %13, i32 0, i32 2
  store ptr %18, ptr %19, align 8, !tbaa !36
  %20 = getelementptr inbounds nuw %struct.Lexer, ptr %13, i32 0, i32 3
  store ptr null, ptr %20, align 8, !tbaa !19
  ret void
}