; Function Attrs: mustprogress nofree norecurse nosync nounwind willreturn memory(argmem: write) uwtable
define dso_local void @_ZN5Lexer5StartE11StringPieceS0_(ptr noundef nonnull writeonly align 8 captures(none) dereferenceable(48) initializes((0, 48)) %0, ptr %1, i64 %2, ptr %3, i64 %4) local_unnamed_addr #4 align 2 {
  store ptr %1, ptr %0, align 8, !tbaa !31
  %.sroa.22.0..sroa_idx = getelementptr inbounds nuw i8, ptr %0, i64 8
  store i64 %2, ptr %.sroa.22.0..sroa_idx, align 8, !tbaa !20
  %6 = getelementptr inbounds nuw i8, ptr %0, i64 16
  store ptr %3, ptr %6, align 8, !tbaa !31
  %.sroa.2.0..sroa_idx = getelementptr inbounds nuw i8, ptr %0, i64 24
  store i64 %4, ptr %.sroa.2.0..sroa_idx, align 8, !tbaa !20
  %7 = getelementptr inbounds nuw i8, ptr %0, i64 32
  store ptr %3, ptr %7, align 8, !tbaa !32
  %8 = getelementptr inbounds nuw i8, ptr %0, i64 40
  store ptr null, ptr %8, align 8, !tbaa !12
  ret void
}